TN:
SF:/workspace/include/BusSystem.h
FNL:0,13,13
FNA:0,0,_ZN10CBusSystem5SStopD0Ev
FNA:0,42,_ZN10CBusSystem5SStopD2Ev
FNL:1,19,19
FNA:1,0,_ZN10CBusSystem6SRouteD0Ev
FNA:1,19,_ZN10CBusSystem6SRouteD2Ev
FNL:2,25,25
FNA:2,0,_ZN10CBusSystemD0Ev
FNA:2,22,_ZN10CBusSystemD2Ev
FNF:3
FNH:3
DA:13,42
DA:19,19
DA:25,22
LF:3
LH:3
end_of_record
TN:
SF:/workspace/include/DataSink.h
FNL:0,8,8
FNA:0,0,_ZN9CDataSinkD0Ev
FNA:0,29,_ZN9CDataSinkD2Ev
FNF:1
FNH:1
DA:8,29
LF:1
LH:1
end_of_record
TN:
SF:/workspace/include/DataSource.h
FNL:0,8,8
FNA:0,0,_ZN11CDataSourceD0Ev
FNA:0,93,_ZN11CDataSourceD2Ev
FNF:1
FNH:1
DA:8,93
LF:1
LH:1
end_of_record
TN:
SF:/workspace/include/PathRouter.h
FNL:0,16,16
FNA:0,0,_ZN11CPathRouterD0Ev
FNA:0,15,_ZN11CPathRouterD2Ev
FNF:1
FNH:1
DA:16,15
LF:1
LH:1
end_of_record
TN:
SF:/workspace/include/StreetMap.h
FNL:0,19,19
FNA:0,95,_ZN10CStreetMap9SLocationC2Edd
FNL:1,20,22
FNA:1,24,_ZNK10CStreetMap9SLocationeqERKS0_
FNL:2,29,29
FNA:2,0,_ZN10CStreetMap5SNodeD0Ev
FNA:2,45,_ZN10CStreetMap5SNodeD2Ev
FNL:3,39,39
FNA:3,0,_ZN10CStreetMap4SWayD0Ev
FNA:3,19,_ZN10CStreetMap4SWayD2Ev
FNL:4,49,49
FNA:4,0,_ZN10CStreetMapD0Ev
FNA:4,13,_ZN10CStreetMapD2Ev
FNF:5
FNH:5
DA:19,95
DA:20,24
DA:21,24
DA:29,45
DA:39,19
DA:49,13
LF:6
LH:6
end_of_record
TN:
SF:/workspace/include/TransportationPlanner.h
FNL:0,15,15
FNA:0,0,_ZN22CTransportationPlanner14SConfigurationD0Ev
FNA:0,5,_ZN22CTransportationPlanner14SConfigurationD2Ev
FNL:1,25,25
FNA:1,0,_ZN22CTransportationPlannerD0Ev
FNA:1,5,_ZN22CTransportationPlannerD2Ev
FNF:2
FNH:2
DA:15,5
DA:25,5
LF:2
LH:2
end_of_record
TN:
SF:/workspace/include/TransportationPlannerConfig.h
FNL:0,15,30
FNA:0,5,_ZN28STransportationPlannerConfigC2ESt10shared_ptrI10CStreetMapES0_I10CBusSystemEddddi
FNL:1,32,34
FNA:1,299,_ZNK28STransportationPlannerConfig9StreetMapEv
FNL:2,36,38
FNA:2,59,_ZNK28STransportationPlannerConfig9BusSystemEv
FNL:3,40,42
FNA:3,23,_ZNK28STransportationPlannerConfig9WalkSpeedEv
FNL:4,44,46
FNA:4,23,_ZNK28STransportationPlannerConfig9BikeSpeedEv
FNL:5,48,50
FNA:5,36,_ZNK28STransportationPlannerConfig17DefaultSpeedLimitEv
FNL:6,52,54
FNA:6,16,_ZNK28STransportationPlannerConfig11BusStopTimeEv
FNL:7,56,58
FNA:7,0,_ZNK28STransportationPlannerConfig14PrecomputeTimeEv
FNF:8
FNH:7
DA:15,5
DA:21,5
DA:22,5
DA:23,5
DA:24,5
DA:25,5
DA:26,5
DA:27,5
DA:28,5
DA:30,5
DA:32,299
DA:33,299
DA:36,59
DA:37,59
DA:40,23
DA:41,23
DA:44,23
DA:45,23
DA:48,36
DA:49,36
DA:52,16
DA:53,16
DA:56,0
DA:57,0
LF:24
LH:22
end_of_record
TN:
SF:/workspace/include/XMLEntity.h
FNL:0,17,24
FNA:0,2,_ZNK10SXMLEntity15AttributeExistsERKNSt7__cxx1112basic_stringIcSt11char_traitsIcESaIcEEE
FNL:1,26,33
FNA:1,473,_ZNK10SXMLEntity14AttributeValueERKNSt7__cxx1112basic_stringIcSt11char_traitsIcESaIcEEE
FNL:2,35,47
FNA:2,6,_ZN10SXMLEntity12SetAttributeERKNSt7__cxx1112basic_stringIcSt11char_traitsIcESaIcEEES7_
FNF:3
FNH:3
DA:17,2
DA:18,3
DA:19,2
DA:20,1
DA:23,1
DA:26,473
DA:27,786
DA:28,783
DA:29,470
DA:32,3
DA:35,6
DA:36,6
DA:37,1
DA:39,8
DA:40,4
DA:41,1
DA:42,1
DA:45,4
DA:46,4
LF:19
LH:19
end_of_record
TN:
SF:/workspace/src/BusSystemIndexer.cpp
FNL:0,100,103
FNA:0,9,_ZNK17CBusSystemIndexer15SImplementation19RouteBetweenNodeIDsEmm
FNL:1,108,110
FNA:1,22,_ZN17CBusSystemIndexerC2ESt10shared_ptrI10CBusSystemE
FNL:2,113,115
FNA:2,22,_ZN17CBusSystemIndexerD2Ev
FNL:3,118,120
FNA:3,6,_ZNK17CBusSystemIndexer9StopCountEv
FNL:4,123,125
FNA:4,5,_ZNK17CBusSystemIndexer10RouteCountEv
FNL:5,13,17
FNA:5,66,_ZNK17CBusSystemIndexer15SImplementation15SNodeIDPairHashclERKSt4pairImmE
FNL:6,130,133
FNA:6,9,_ZNK17CBusSystemIndexer17SortedStopByIndexEm
FNL:7,138,140
FNA:7,8,_ZNK17CBusSystemIndexer18SortedRouteByIndexEm
FNL:8,146,148
FNA:8,12,_ZNK17CBusSystemIndexer12StopByNodeIDEm
FNL:9,154,156
FNA:9,10,_ZNK17CBusSystemIndexer15RoutesByNodeIDsEmmRSt13unordered_setISt10shared_ptrIN10CBusSystem6SRouteEESt4hashIS4_ESt8equal_toIS4_ESaIS4_EE
FNL:10,160,162
FNA:10,9,_ZNK17CBusSystemIndexer19RouteBetweenNodeIDsEmm
FNL:11,21,55
FNA:11,22,_ZN17CBusSystemIndexer15SImplementationC2ESt10shared_ptrI10CBusSystemE
FNL:12,28,30
FNA:12,47,_ZZN17CBusSystemIndexer15SImplementationC4ESt10shared_ptrI10CBusSystemEENKUlS1_INS2_5SStopEES5_E_clES5_S5_
FNL:13,35,37
FNA:13,8,_ZZN17CBusSystemIndexer15SImplementationC4ESt10shared_ptrI10CBusSystemEENKUlS1_INS2_6SRouteEES5_E_clES5_S5_
FNL:14,57,59
FNA:14,22,_ZN17CBusSystemIndexer15SImplementationD2Ev
FNL:15,61,63
FNA:15,15,_ZNK17CBusSystemIndexer15SImplementation9StopCountEv
FNL:16,65,67
FNA:16,13,_ZNK17CBusSystemIndexer15SImplementation10RouteCountEv
FNL:17,69,74
FNA:17,9,_ZNK17CBusSystemIndexer15SImplementation17SortedStopByIndexEm
FNL:18,76,81
FNA:18,8,_ZNK17CBusSystemIndexer15SImplementation18SortedRouteByIndexEm
FNL:19,83,89
FNA:19,12,_ZNK17CBusSystemIndexer15SImplementation12StopByNodeIDEm
FNL:20,91,98
FNA:20,19,_ZNK17CBusSystemIndexer15SImplementation15RoutesByNodeIDsEmmRSt13unordered_setISt10shared_ptrIN10CBusSystem6SRouteEESt4hashIS5_ESt8equal_toIS5_ESaIS5_EE
FNF:21
FNH:21
DA:13,66
DA:14,66
DA:15,66
DA:16,66
DA:21,22
DA:22,22
DA:23,64
DA:24,42
DA:25,42
DA:26,42
DA:27,42
DA:28,22
DA:29,47
DA:31,41
DA:32,19
DA:33,19
DA:34,19
DA:35,22
DA:36,8
DA:38,41
DA:39,54
DA:40,35
DA:41,35
DA:42,35
DA:43,35
DA:44,35
DA:45,35
DA:46,35
DA:47,52
DA:50,9
DA:53,19
DA:55,48
DA:57,22
DA:59,22
DA:61,15
DA:62,15
DA:65,13
DA:66,13
DA:69,9
DA:70,9
DA:71,2
DA:73,7
DA:76,8
DA:77,8
DA:78,2
DA:80,6
DA:83,12
DA:84,12
DA:85,12
DA:86,10
DA:88,2
DA:91,19
DA:92,19
DA:93,19
DA:94,10
DA:95,10
DA:97,9
DA:100,9
DA:101,9
DA:102,9
DA:103,9
DA:108,22
DA:109,22
DA:110,22
DA:113,22
DA:115,22
DA:118,6
DA:119,6
DA:123,5
DA:124,5
DA:130,9
DA:131,9
DA:138,8
DA:139,8
DA:146,12
DA:147,12
DA:154,10
DA:155,10
DA:160,9
DA:161,9
LF:80
LH:80
end_of_record
TN:
SF:/workspace/src/CSVBusSystem.cpp
FNL:0,10,12
FNA:0,0,_ZN13CCSVBusSystem15SImplementation5SStopD0Ev
FNA:0,42,_ZN13CCSVBusSystem15SImplementation5SStopD2Ev
FNL:1,136,143
FNA:1,22,_ZN13CCSVBusSystem15SImplementationC2ESt10shared_ptrI10CDSVReaderES3_
FNL:2,146,148
FNA:2,121,_ZNK13CCSVBusSystem15SImplementation9StopCountEv
FNL:3,15,17
FNA:3,117,_ZNK13CCSVBusSystem15SImplementation5SStop2IDEv
FNL:4,151,153
FNA:4,91,_ZNK13CCSVBusSystem15SImplementation10RouteCountEv
FNL:5,158,163
FNA:5,42,_ZNK13CCSVBusSystem15SImplementation11StopByIndexEm
FNL:6,167,173
FNA:6,106,_ZNK13CCSVBusSystem15SImplementation8StopByIDEm
FNL:7,177,182
FNA:7,25,_ZNK13CCSVBusSystem15SImplementation12RouteByIndexEm
FNL:8,186,192
FNA:8,0,_ZNK13CCSVBusSystem15SImplementation11RouteByNameERKNSt7__cxx1112basic_stringIcSt11char_traitsIcESaIcEEE
FNL:9,199,201
FNA:9,22,_ZN13CCSVBusSystemC2ESt10shared_ptrI10CDSVReaderES2_
FNL:10,20,22
FNA:10,182,_ZNK13CCSVBusSystem15SImplementation5SStop6NodeIDEv
FNL:11,204,206
FNA:11,0,_ZN13CCSVBusSystemD0Ev
FNA:11,22,_ZN13CCSVBusSystemD2Ev
FNL:12,208,210
FNA:12,79,_ZNK13CCSVBusSystem9StopCountEv
FNL:13,212,214
FNA:13,66,_ZNK13CCSVBusSystem10RouteCountEv
FNL:14,216,218
FNA:14,42,_ZNK13CCSVBusSystem11StopByIndexEm
FNL:15,220,222
FNA:15,106,_ZNK13CCSVBusSystem8StopByIDEm
FNL:16,224,226
FNA:16,25,_ZNK13CCSVBusSystem12RouteByIndexEm
FNL:17,228,230
FNA:17,0,_ZNK13CCSVBusSystem11RouteByNameERKNSt7__cxx1112basic_stringIcSt11char_traitsIcESaIcEEE
FNL:18,28,30
FNA:18,0,_ZN13CCSVBusSystem15SImplementation6SRouteD0Ev
FNA:18,19,_ZN13CCSVBusSystem15SImplementation6SRouteD2Ev
FNL:19,33,35
FNA:19,23,_ZNK13CCSVBusSystem15SImplementation6SRoute4NameB5cxx11Ev
FNL:20,37,39
FNA:20,209,_ZNK13CCSVBusSystem15SImplementation6SRoute9StopCountEv
FNL:21,43,48
FNA:21,121,_ZNK13CCSVBusSystem15SImplementation6SRoute9GetStopIDEm
FNL:22,60,95
FNA:22,22,_ZN13CCSVBusSystem15SImplementation9ReadStopsESt10shared_ptrI10CDSVReaderE
FNL:23,97,134
FNA:23,22,_ZN13CCSVBusSystem15SImplementation10ReadRoutesESt10shared_ptrI10CDSVReaderE
FNF:24
FNH:22
DA:10,42
DA:12,42
DA:15,117
DA:16,117
DA:20,182
DA:21,182
DA:28,19
DA:30,19
DA:33,23
DA:34,23
DA:37,209
DA:38,209
DA:43,121
DA:44,121
DA:45,0
DA:47,121
DA:60,22
DA:61,22
DA:63,22
DA:64,22
DA:65,22
DA:66,66
DA:67,44
DA:68,22
DA:70,22
DA:71,22
DA:74,22
DA:75,0
DA:77,64
DA:78,42
DA:79,42
DA:81,42
DA:82,0
DA:85,42
DA:86,42
DA:87,42
DA:88,42
DA:89,42
DA:90,42
DA:92,22
DA:94,0
DA:95,22
DA:97,22
DA:98,22
DA:100,22
DA:101,22
DA:102,22
DA:103,66
DA:104,44
DA:105,22
DA:107,22
DA:108,22
DA:111,22
DA:112,0
DA:114,76
DA:115,54
DA:116,54
DA:118,54
DA:119,0
DA:122,54
DA:123,19
DA:124,19
DA:125,19
DA:126,19
DA:127,19
DA:129,54
DA:130,54
DA:131,22
DA:133,0
DA:134,22
DA:136,154
DA:137,22
DA:140,22
DA:143,22
DA:146,121
DA:147,121
DA:151,91
DA:152,91
DA:158,42
DA:159,42
DA:160,0
DA:162,42
DA:167,106
DA:168,106
DA:169,106
DA:170,0
DA:172,106
DA:177,25
DA:178,25
DA:179,0
DA:181,25
DA:186,0
DA:187,0
DA:188,0
DA:189,0
DA:191,0
DA:199,22
DA:200,22
DA:201,22
DA:204,22
DA:206,22
DA:208,79
DA:209,79
DA:212,66
DA:213,66
DA:216,42
DA:217,42
DA:220,106
DA:221,106
DA:224,25
DA:225,25
DA:228,0
DA:229,0
LF:113
LH:96
end_of_record
TN:
SF:/workspace/src/DSVReader.cpp
FNL:0,16,18
FNA:0,62,_ZN10CDSVReader15SImplementationD2Ev
FNL:1,20,22
FNA:1,18,_ZNK10CDSVReader15SImplementation3EndEv
FNL:2,24,69
FNA:2,208,_ZN10CDSVReader15SImplementation7ReadRowERSt6vectorINSt7__cxx1112basic_stringIcSt11char_traitsIcESaIcEEESaIS7_EE
FNL:3,73,75
FNA:3,62,_ZN10CDSVReaderC2ESt10shared_ptrI11CDataSourceEc
FNL:4,77,79
FNA:4,62,_ZN10CDSVReaderD2Ev
FNL:5,8,14
FNA:5,62,_ZN10CDSVReader15SImplementationC2ESt10shared_ptrI11CDataSourceEc
FNL:6,81,83
FNA:6,18,_ZNK10CDSVReader3EndEv
FNL:7,85,87
FNA:7,208,_ZN10CDSVReader7ReadRowERSt6vectorINSt7__cxx1112basic_stringIcSt11char_traitsIcESaIcEEESaIS6_EE
FNF:8
FNH:8
DA:8,62
DA:9,62
DA:10,62
DA:11,2
DA:13,62
DA:14,62
DA:16,62
DA:18,62
DA:20,18
DA:21,18
DA:24,208
DA:25,208
DA:27,208
DA:29,208
DA:31,208
DA:32,45
DA:35,1348
DA:36,1289
DA:37,36
DA:38,13
DA:39,13
DA:43,23
DA:44,23
DA:45,14
DA:46,10
DA:50,9
DA:54,1253
DA:55,104
DA:56,104
DA:58,1149
DA:59,169
DA:60,169
DA:63,980
DA:67,59
DA:68,59
DA:69,208
DA:73,62
DA:74,62
DA:75,62
DA:77,62
DA:79,62
DA:81,18
DA:82,18
DA:85,208
DA:86,208
LF:45
LH:45
end_of_record
TN:
SF:/workspace/src/DSVWriter.cpp
FNL:0,19,21
FNA:0,15,_ZN10CDSVWriter15SImplementationD2Ev
FNL:1,23,56
FNA:1,22,_ZN10CDSVWriter15SImplementation8WriteRowERKSt6vectorINSt7__cxx1112basic_stringIcSt11char_traitsIcESaIcEEESaIS7_EE
FNL:2,60,62
FNA:2,15,_ZN10CDSVWriterC2ESt10shared_ptrI9CDataSinkEcb
FNL:3,64,66
FNA:3,15,_ZN10CDSVWriterD2Ev
FNL:4,68,70
FNA:4,22,_ZN10CDSVWriter8WriteRowERKSt6vectorINSt7__cxx1112basic_stringIcSt11char_traitsIcESaIcEEESaIS6_EE
FNL:5,9,17
FNA:5,15,_ZN10CDSVWriter15SImplementationC2ESt10shared_ptrI9CDataSinkEcb
FNF:6
FNH:6
DA:9,15
DA:10,15
DA:11,15
DA:12,1
DA:14,15
DA:15,15
DA:16,15
DA:17,15
DA:19,15
DA:21,15
DA:23,22
DA:24,22
DA:25,7
DA:27,22
DA:28,15
DA:31,22
DA:32,65
DA:33,86
DA:34,43
DA:35,24
DA:37,43
DA:39,138
DA:40,95
DA:41,8
DA:42,8
DA:46,43
DA:47,12
DA:48,12
DA:49,12
DA:52,31
DA:54,43
DA:55,22
DA:60,15
DA:61,15
DA:62,15
DA:64,15
DA:66,15
DA:68,22
DA:69,22
LF:39
LH:39
end_of_record
TN:
SF:/workspace/src/DijkstraPathRouter.cpp
FNL:0,107,109
FNA:0,15,_ZN19CDijkstraPathRouterC2Ev
FNL:1,111,113
FNA:1,0,_ZN19CDijkstraPathRouterD0Ev
FNA:1,15,_ZN19CDijkstraPathRouterD2Ev
FNL:2,115,117
FNA:2,6,_ZNK19CDijkstraPathRouter11VertexCountEv
FNL:3,119,121
FNA:3,64,_ZN19CDijkstraPathRouter9AddVertexESt3any
FNL:4,123,125
FNA:4,61,_ZNK19CDijkstraPathRouter12GetVertexTagEm
FNL:5,127,129
FNA:5,155,_ZN19CDijkstraPathRouter7AddEdgeEmmdb
FNL:6,131,133
FNA:6,1,_ZN19CDijkstraPathRouter10PrecomputeENSt6chrono10time_pointINS0_3_V212steady_clockENS0_8durationIlSt5ratioILl1ELl1000000000EEEEEE
FNL:7,135,137
FNA:7,23,_ZN19CDijkstraPathRouter16FindShortestPathEmmRSt6vectorImSaImEE
FNL:8,14,16
FNA:8,15,_ZN19CDijkstraPathRouter15SImplementationC2Ev
FNL:9,18,20
FNA:9,15,_ZN19CDijkstraPathRouter15SImplementationD2Ev
FNL:10,22,24
FNA:10,6,_ZNK19CDijkstraPathRouter15SImplementation11VertexCountEv
FNL:11,26,32
FNA:11,64,_ZN19CDijkstraPathRouter15SImplementation9AddVertexESt3any
FNL:12,34,39
FNA:12,61,_ZNK19CDijkstraPathRouter15SImplementation12GetVertexTagEm
FNL:13,41,50
FNA:13,155,_ZN19CDijkstraPathRouter15SImplementation7AddEdgeEmmdb
FNL:14,52,54
FNA:14,1,_ZN19CDijkstraPathRouter15SImplementation10PrecomputeENSt6chrono10time_pointINS1_3_V212steady_clockENS1_8durationIlSt5ratioILl1ELl1000000000EEEEEE
FNL:15,56,104
FNA:15,23,_ZN19CDijkstraPathRouter15SImplementation16FindShortestPathEmmRSt6vectorImSaImEE
FNF:16
FNH:16
DA:14,15
DA:16,15
DA:18,15
DA:20,15
DA:22,6
DA:23,6
DA:26,64
DA:27,64
DA:28,64
DA:29,64
DA:30,64
DA:31,128
DA:32,64
DA:34,61
DA:35,61
DA:36,60
DA:38,1
DA:41,155
DA:42,155
DA:43,155
DA:44,155
DA:45,1
DA:47,155
DA:49,0
DA:52,1
DA:53,1
DA:56,23
DA:57,23
DA:58,23
DA:59,23
DA:60,23
DA:61,23
DA:62,23
DA:64,23
DA:65,23
DA:67,83
DA:68,82
DA:69,82
DA:70,82
DA:71,82
DA:72,82
DA:73,0
DA:76,82
DA:77,22
DA:80,60
DA:81,195
DA:82,135
DA:83,135
DA:85,135
DA:86,96
DA:87,96
DA:88,96
DA:93,23
DA:94,22
DA:95,59
DA:96,37
DA:97,37
DA:99,22
DA:100,22
DA:103,23
DA:104,23
DA:107,15
DA:108,15
DA:109,15
DA:111,15
DA:113,15
DA:115,6
DA:116,6
DA:119,64
DA:120,64
DA:123,61
DA:124,61
DA:127,155
DA:128,155
DA:131,1
DA:132,1
DA:135,23
DA:136,23
LF:78
LH:76
end_of_record
TN:
SF:/workspace/src/DijkstraTransportationPlanner.cpp
FNL:0,190,192
FNA:0,5,_ZN30CDijkstraTransportationPlanner15SImplementationD2Ev
FNL:1,194,196
FNA:1,6,_ZNK30CDijkstraTransportationPlanner15SImplementation9NodeCountEv
FNL:2,198,203
FNA:2,4,_ZNK30CDijkstraTransportationPlanner15SImplementation17SortedNodeByIndexEm
FNL:3,205,222
FNA:3,2,_ZN30CDijkstraTransportationPlanner15SImplementation16FindShortestPathEmmRSt6vectorImSaImEE
FNL:4,224,263
FNA:4,3,_ZN30CDijkstraTransportationPlanner15SImplementation15FindFastestPathEmmRSt6vectorISt4pairIN22CTransportationPlanner19ETransportationModeEmESaIS5_EE
FNL:5,23,27
FNA:5,105,_ZNK30CDijkstraTransportationPlanner15SImplementation13SEdgePairHashclERKSt4pairImmE
FNL:6,265,410
FNA:6,3,_ZNK30CDijkstraTransportationPlanner15SImplementation18GetPathDescriptionERKSt6vectorISt4pairIN22CTransportationPlanner19ETransportationModeEmESaIS5_EERS1_INSt7__cxx1112basic_stringIcSt11char_traitsIcESaIcEEESaISF_EE
FNL:7,272,272
FNA:7,46,_ZZNK30CDijkstraTransportationPlanner15SImplementation18GetPathDescriptionERKSt6vectorISt4pairIN22CTransportationPlanner19ETransportationModeEmESaIS5_EERS1_INSt7__cxx1112basic_stringIcSt11char_traitsIcESaIcEEESaISF_EEENKUlmE_clEm
FNL:8,275,280
FNA:8,9,_ZZNK30CDijkstraTransportationPlanner15SImplementation18GetPathDescriptionERKSt6vectorISt4pairIN22CTransportationPlanner19ETransportationModeEmESaIS5_EERS1_INSt7__cxx1112basic_stringIcSt11char_traitsIcESaIcEEESaISF_EEENKUldE_clB5cxx11Ed
FNL:9,31,35
FNA:9,158,_ZNK30CDijkstraTransportationPlanner15SImplementation15SNodeIDPairHashclERKSt4pairImmE
FNL:10,414,416
FNA:10,5,_ZN30CDijkstraTransportationPlannerC2ESt10shared_ptrIN22CTransportationPlanner14SConfigurationEE
FNL:11,419,421
FNA:11,0,_ZN30CDijkstraTransportationPlannerD0Ev
FNA:11,5,_ZN30CDijkstraTransportationPlannerD2Ev
FNL:12,424,426
FNA:12,6,_ZNK30CDijkstraTransportationPlanner9NodeCountEv
FNL:13,431,433
FNA:13,4,_ZNK30CDijkstraTransportationPlanner17SortedNodeByIndexEm
FNL:14,438,440
FNA:14,2,_ZN30CDijkstraTransportationPlanner16FindShortestPathEmmRSt6vectorImSaImEE
FNL:15,44,188
FNA:15,5,_ZN30CDijkstraTransportationPlanner15SImplementationC2ESt10shared_ptrIN22CTransportationPlanner14SConfigurationEE
FNL:16,446,448
FNA:16,3,_ZN30CDijkstraTransportationPlanner15FindFastestPathEmmRSt6vectorISt4pairIN22CTransportationPlanner19ETransportationModeEmESaIS4_EE
FNL:17,452,454
FNA:17,3,_ZNK30CDijkstraTransportationPlanner18GetPathDescriptionERKSt6vectorISt4pairIN22CTransportationPlanner19ETransportationModeEmESaIS4_EERS0_INSt7__cxx1112basic_stringIcSt11char_traitsIcESaIcEEESaISE_EE
FNL:18,52,54
FNA:18,37,_ZZN30CDijkstraTransportationPlanner15SImplementationC4ESt10shared_ptrIN22CTransportationPlanner14SConfigurationEEENKUlS1_IN10CStreetMap5SNodeEES7_E_clES7_S7_
FNF:19
FNH:19
DA:23,105
DA:24,105
DA:25,105
DA:26,105
DA:31,158
DA:32,158
DA:33,158
DA:34,158
DA:44,5
DA:45,5
DA:48,28
DA:49,23
DA:52,5
DA:53,37
DA:57,28
DA:58,23
DA:59,23
DA:60,23
DA:61,23
DA:65,17
DA:66,12
DA:69,44
DA:70,12
DA:71,36
DA:72,12
DA:74,12
DA:75,36
DA:76,3
DA:80,35
DA:81,23
DA:82,23
DA:84,23
DA:85,23
DA:88,23
DA:90,23
DA:91,23
DA:92,23
DA:93,23
DA:94,23
DA:95,23
DA:96,15
DA:97,15
DA:98,15
DA:100,23
DA:101,12
DA:107,17
DA:108,12
DA:111,32
DA:112,24
DA:115,35
DA:116,23
DA:117,23
DA:119,23
DA:120,23
DA:123,23
DA:126,23
DA:127,23
DA:130,23
DA:133,23
DA:134,23
DA:135,23
DA:136,23
DA:137,23
DA:138,23
DA:139,23
DA:140,23
DA:141,23
DA:142,15
DA:143,15
DA:146,23
DA:147,12
DA:152,9
DA:153,4
DA:154,20
DA:155,16
DA:156,16
DA:157,16
DA:158,48
DA:159,16
DA:160,16
DA:163,16
DA:164,0
DA:168,16
DA:169,40
DA:170,24
DA:171,24
DA:172,24
DA:173,24
DA:174,24
DA:175,24
DA:176,24
DA:177,24
DA:179,24
DA:180,24
DA:181,16
DA:182,16
DA:183,16
DA:184,16
DA:185,16
DA:186,16
DA:187,4
DA:188,5
DA:190,5
DA:192,5
DA:194,6
DA:195,6
DA:198,4
DA:199,4
DA:200,0
DA:202,4
DA:205,2
DA:206,2
DA:207,2
DA:208,1
DA:210,1
DA:212,1
DA:214,1
DA:215,0
DA:218,5
DA:219,4
DA:221,1
DA:222,1
DA:224,3
DA:225,3
DA:226,3
DA:227,1
DA:230,2
DA:231,2
DA:233,2
DA:234,0
DA:237,7
DA:238,5
DA:239,5
DA:242,2
DA:243,2
DA:244,2
DA:245,2
DA:246,1
DA:249,2
DA:252,3
DA:253,3
DA:255,3
DA:256,3
DA:258,3
DA:262,2
DA:263,2
DA:265,3
DA:266,3
DA:267,3
DA:268,0
DA:272,46
DA:275,9
DA:276,9
DA:277,0
DA:279,9
DA:282,3
DA:283,3
DA:284,0
DA:286,3
DA:288,3
DA:289,13
DA:290,10
DA:291,10
DA:292,10
DA:294,10
DA:296,1
DA:297,1
DA:299,2
DA:300,1
DA:301,1
DA:303,1
DA:304,1
DA:305,1
DA:306,0
DA:311,1
DA:312,1
DA:313,3
DA:314,2
DA:315,2
DA:316,9
DA:317,8
DA:318,1
DA:320,8
DA:322,1
DA:323,3
DA:324,2
DA:325,2
DA:326,2
DA:327,2
DA:328,2
DA:329,2
DA:331,2
DA:332,1
DA:333,1
DA:334,1
DA:336,1
DA:339,2
DA:340,4
DA:341,3
DA:342,2
DA:343,1
DA:345,9
DA:346,9
DA:347,6
DA:349,9
DA:350,9
DA:351,9
DA:354,9
DA:355,9
DA:356,9
DA:357,18
DA:360,11
DA:361,7
DA:362,7
DA:363,7
DA:364,7
DA:366,7
DA:367,5
DA:369,2
DA:370,2
DA:371,4
DA:372,2
DA:373,2
DA:374,7
DA:377,9
DA:378,18
DA:379,9
DA:381,9
DA:382,9
DA:383,7
DA:387,2
DA:388,2
DA:389,1
DA:390,1
DA:391,1
DA:392,1
DA:393,1
DA:394,1
DA:395,1
DA:397,1
DA:399,2
DA:400,2
DA:401,9
DA:402,9
DA:403,9
DA:404,10
DA:407,3
DA:408,3
DA:409,3
DA:410,3
DA:414,5
DA:415,5
DA:416,5
DA:419,5
DA:421,5
DA:424,6
DA:425,6
DA:431,4
DA:432,4
DA:438,2
DA:439,2
DA:446,3
DA:447,3
DA:452,3
DA:453,3
LF:265
LH:257
end_of_record
TN:
SF:/workspace/src/GeographicUtils.cpp
FNL:0,10,12
FNA:0,19,_ZN16SGeographicUtils16RadiansToDegreesEd
FNL:1,111,122
FNA:1,4,_ZN16SGeographicUtils34CalcualteExternalBisectorDirectionB5cxx11EN10CStreetMap9SLocationES1_S1_
FNL:2,124,145
FNA:2,1,_ZN16SGeographicUtils16CalculateExtentsERKSt6vectorIN10CStreetMap9SLocationESaIS2_EERS2_S7_
FNL:3,14,20
FNA:3,49,_ZN16SGeographicUtils12Normalize360Ed
FNL:4,147,156
FNA:4,1,_ZN16SGeographicUtils15FilterLocationsERKSt6vectorIN10CStreetMap9SLocationESaIS2_EERKS2_S8_
FNL:5,160,186
FNA:5,7,_ZN16SGeographicUtils14ConvertLLToDMSB5cxx11EN10CStreetMap9SLocationE
FNL:6,22,28
FNA:6,32,_ZN16SGeographicUtils15Normalize180180Ed
FNL:7,30,43
FNA:7,90,_ZN16SGeographicUtils24HaversineDistanceInMilesEN10CStreetMap9SLocationES1_
FNL:8,45,53
FNA:8,18,_ZN16SGeographicUtils16CalculateBearingEN10CStreetMap9SLocationES1_
FNL:9,59,74
FNA:9,4,_ZN16SGeographicUtils25CalculateExternalBisectorEdd
FNL:10,6,8
FNA:10,433,_ZN16SGeographicUtils16DegreesToRadiansEd
FNL:11,76,109
FNA:11,23,_ZN16SGeographicUtils18BearingToDirectionB5cxx11Ed
FNF:12
FNH:12
DA:6,433
DA:7,433
DA:10,19
DA:11,19
DA:14,49
DA:15,49
DA:16,49
DA:17,6
DA:19,49
DA:22,32
DA:23,32
DA:24,32
DA:25,8
DA:27,32
DA:30,90
DA:31,90
DA:32,90
DA:33,90
DA:34,90
DA:35,90
DA:36,90
DA:37,90
DA:38,90
DA:39,90
DA:40,90
DA:42,90
DA:45,18
DA:46,18
DA:47,18
DA:48,18
DA:49,18
DA:50,18
DA:51,18
DA:52,18
DA:59,4
DA:60,4
DA:61,4
DA:63,4
DA:64,4
DA:66,4
DA:68,4
DA:70,4
DA:71,2
DA:73,4
DA:76,23
DA:77,23
DA:78,23
DA:79,16
DA:80,6
DA:81,10
DA:83,2
DA:86,10
DA:87,12
DA:89,4
DA:90,2
DA:92,6
DA:96,7
DA:97,5
DA:98,8
DA:100,2
DA:103,2
DA:104,2
DA:106,2
DA:111,4
DA:112,4
DA:113,4
DA:115,4
DA:116,0
DA:119,4
DA:121,4
DA:124,1
DA:125,1
DA:126,1
DA:127,1
DA:128,1
DA:130,4
DA:131,3
DA:132,2
DA:134,3
DA:135,2
DA:137,3
DA:138,2
DA:140,3
DA:141,2
DA:144,1
DA:147,1
DA:148,1
DA:149,5
DA:150,4
DA:151,1
DA:153,3
DA:155,1
DA:160,7
DA:161,7
DA:162,7
DA:163,7
DA:164,7
DA:165,7
DA:167,7
DA:168,7
DA:169,7
DA:170,7
DA:171,7
DA:172,7
DA:173,7
DA:174,7
DA:176,7
DA:177,7
DA:178,7
DA:179,7
DA:180,7
DA:181,7
DA:182,7
DA:183,7
DA:185,14
DA:186,7
LF:116
LH:115
end_of_record
TN:
SF:/workspace/src/OpenStreetMap.cpp
FNL:0,103,108
FNA:0,32,_ZNK14COpenStreetMap15SImplementation4SWay12GetAttributeERKNSt7__cxx1112basic_stringIcSt11char_traitsIcESaIcEEE
FNL:1,114,159
FNA:1,12,_ZN14COpenStreetMap15SImplementation10ParseNodesESt10shared_ptrI10CXMLReaderER10SXMLEntity
FNL:2,164,216
FNA:2,9,_ZN14COpenStreetMap15SImplementation9ParseWaysESt10shared_ptrI10CXMLReaderER10SXMLEntity
FNL:3,218,231
FNA:3,13,_ZN14COpenStreetMap15SImplementation18ParseOpenStreetMapESt10shared_ptrI10CXMLReaderE
FNL:4,233,235
FNA:4,13,_ZN14COpenStreetMap15SImplementationC2ESt10shared_ptrI10CXMLReaderE
FNL:5,237,239
FNA:5,83,_ZNK14COpenStreetMap15SImplementation9NodeCountEv
FNL:6,241,243
FNA:6,80,_ZNK14COpenStreetMap15SImplementation8WayCountEv
FNL:7,245,251
FNA:7,47,_ZNK14COpenStreetMap15SImplementation11NodeByIndexEm
FNL:8,25,25
FNA:8,0,_ZN14COpenStreetMap15SImplementation5SNodeD0Ev
FNA:8,45,_ZN14COpenStreetMap15SImplementation5SNodeD2Ev
FNL:9,253,258
FNA:9,206,_ZNK14COpenStreetMap15SImplementation8NodeByIDEm
FNL:10,26,28
FNA:10,200,_ZNK14COpenStreetMap15SImplementation5SNode2IDEv
FNL:11,260,266
FNA:11,38,_ZNK14COpenStreetMap15SImplementation10WayByIndexEm
FNL:12,268,273
FNA:12,7,_ZNK14COpenStreetMap15SImplementation7WayByIDEm
FNL:13,276,278
FNA:13,13,_ZN14COpenStreetMapC2ESt10shared_ptrI10CXMLReaderE
FNL:14,280,281
FNA:14,0,_ZN14COpenStreetMapD0Ev
FNA:14,13,_ZN14COpenStreetMapD2Ev
FNL:15,283,285
FNA:15,36,_ZNK14COpenStreetMap9NodeCountEv
FNL:16,286,288
FNA:16,42,_ZNK14COpenStreetMap8WayCountEv
FNL:17,290,292
FNA:17,47,_ZNK14COpenStreetMap11NodeByIndexEm
FNL:18,294,296
FNA:18,206,_ZNK14COpenStreetMap8NodeByIDEm
FNL:19,297,299
FNA:19,38,_ZNK14COpenStreetMap10WayByIndexEm
FNL:20,30,32
FNA:20,205,_ZNK14COpenStreetMap15SImplementation5SNode8LocationEv
FNL:21,301,303
FNA:21,7,_ZNK14COpenStreetMap7WayByIDEm
FNL:22,34,36
FNA:22,38,_ZNK14COpenStreetMap15SImplementation5SNode14AttributeCountEv
FNL:23,38,44
FNA:23,23,_ZNK14COpenStreetMap15SImplementation5SNode15GetAttributeKeyB5cxx11Em
FNL:24,46,51
FNA:24,23,_ZNK14COpenStreetMap15SImplementation5SNode12HasAttributeERKNSt7__cxx1112basic_stringIcSt11char_traitsIcESaIcEEE
FNL:25,53,58
FNA:25,23,_ZNK14COpenStreetMap15SImplementation5SNode12GetAttributeERKNSt7__cxx1112basic_stringIcSt11char_traitsIcESaIcEEE
FNL:26,67,67
FNA:26,0,_ZN14COpenStreetMap15SImplementation4SWayD0Ev
FNA:26,19,_ZN14COpenStreetMap15SImplementation4SWayD2Ev
FNL:27,68,70
FNA:27,12,_ZNK14COpenStreetMap15SImplementation4SWay2IDEv
FNL:28,72,74
FNA:28,227,_ZNK14COpenStreetMap15SImplementation4SWay9NodeCountEv
FNL:29,76,82
FNA:29,132,_ZNK14COpenStreetMap15SImplementation4SWay9GetNodeIDEm
FNL:30,84,86
FNA:30,25,_ZNK14COpenStreetMap15SImplementation4SWay14AttributeCountEv
FNL:31,88,94
FNA:31,19,_ZNK14COpenStreetMap15SImplementation4SWay15GetAttributeKeyB5cxx11Em
FNL:32,96,101
FNA:32,79,_ZNK14COpenStreetMap15SImplementation4SWay12HasAttributeERKNSt7__cxx1112basic_stringIcSt11char_traitsIcESaIcEEE
FNF:33
FNH:33
DA:25,45
DA:26,200
DA:27,200
DA:30,205
DA:31,205
DA:34,38
DA:35,38
DA:38,23
DA:39,23
DA:40,23
DA:41,18
DA:43,14
DA:46,23
DA:47,23
DA:48,9
DA:50,14
DA:53,23
DA:54,23
DA:55,18
DA:57,14
DA:67,19
DA:68,12
DA:69,12
DA:72,227
DA:73,227
DA:76,132
DA:77,132
DA:78,132
DA:79,1
DA:81,131
DA:84,25
DA:85,25
DA:88,19
DA:89,19
DA:90,19
DA:91,2
DA:93,18
DA:96,79
DA:97,79
DA:98,48
DA:100,31
DA:103,32
DA:104,32
DA:105,2
DA:107,31
DA:114,12
DA:115,12
DA:117,86
DA:118,86
DA:119,9
DA:120,9
DA:123,77
DA:124,2
DA:127,75
DA:128,46
DA:129,1
DA:131,45
DA:132,45
DA:133,45
DA:134,45
DA:135,45
DA:136,45
DA:137,45
DA:138,45
DA:140,93
DA:141,93
DA:142,45
DA:145,48
DA:146,14
DA:147,14
DA:148,14
DA:149,14
DA:150,14
DA:152,48
DA:153,14
DA:156,45
DA:158,0
DA:159,12
DA:164,9
DA:165,9
DA:168,33
DA:169,7
DA:172,26
DA:173,20
DA:174,2
DA:176,19
DA:177,19
DA:178,19
DA:180,288
DA:181,288
DA:182,19
DA:185,269
DA:186,75
DA:187,75
DA:190,269
DA:191,75
DA:194,194
DA:195,27
DA:196,27
DA:197,27
DA:198,27
DA:199,27
DA:201,194
DA:202,27
DA:205,19
DA:206,1
DA:209,18
DA:210,18
DA:212,19
DA:214,24
DA:215,0
DA:216,9
DA:218,13
DA:219,13
DA:221,13
DA:222,12
DA:223,12
DA:224,9
DA:225,7
DA:230,6
DA:231,13
DA:233,325
DA:234,13
DA:235,13
DA:237,83
DA:238,83
DA:241,80
DA:242,80
DA:245,47
DA:246,47
DA:247,47
DA:248,2
DA:250,45
DA:253,206
DA:254,206
DA:255,1
DA:257,205
DA:260,38
DA:261,38
DA:262,38
DA:263,5
DA:265,33
DA:268,7
DA:269,7
DA:270,1
DA:272,6
DA:276,13
DA:277,13
DA:278,13
DA:280,13
DA:281,13
DA:283,36
DA:284,36
DA:286,42
DA:287,42
DA:290,47
DA:291,47
DA:294,206
DA:295,206
DA:297,38
DA:298,38
DA:301,7
DA:302,7
LF:163
LH:161
end_of_record
TN:
SF:/workspace/src/StringDataSink.cpp
FNL:0,12,15
FNA:0,106,_ZN15CStringDataSink5WriteERKSt6vectorIcSaIcEE
FNL:1,3,5
FNA:1,61,_ZNK15CStringDataSink6StringB5cxx11Ev
FNL:2,7,10
FNA:2,184,_ZN15CStringDataSink3PutERKc
FNF:3
FNH:3
DA:3,61
DA:4,61
DA:7,184
DA:8,368
DA:9,184
DA:12,106
DA:13,212
DA:14,106
LF:8
LH:8
end_of_record
TN:
SF:/workspace/src/StringDataSource.cpp
FNL:0,11,18
FNA:0,8588,_ZN17CStringDataSource3GetERc
FNL:1,20,26
FNA:1,34,_ZN17CStringDataSource4PeekERc
FNL:2,28,40
FNA:2,28,_ZN17CStringDataSource4ReadERSt6vectorIcSaIcEEm
FNL:3,3,5
FNA:3,93,_ZN17CStringDataSourceC2ERKNSt7__cxx1112basic_stringIcSt11char_traitsIcESaIcEEE
FNL:4,7,9
FNA:4,301,_ZNK17CStringDataSource3EndEv
FNF:5
FNH:5
DA:3,93
DA:5,93
DA:7,301
DA:8,301
DA:11,8588
DA:12,8588
DA:13,8503
DA:14,8503
DA:15,8503
DA:17,85
DA:20,34
DA:21,34
DA:22,25
DA:23,25
DA:25,9
DA:28,28
DA:29,28
DA:30,7230
DA:32,7223
DA:33,7202
DA:36,21
DA:39,28
LF:22
LH:22
end_of_record
TN:
SF:/workspace/src/StringUtils.cpp
FNL:0,108,120
FNA:0,25,_ZN11StringUtils6RStripERKNSt7__cxx1112basic_stringIcSt11char_traitsIcESaIcEEE
FNL:1,122,125
FNA:1,13,_ZN11StringUtils5StripERKNSt7__cxx1112basic_stringIcSt11char_traitsIcESaIcEEE
FNL:2,127,158
FNA:2,12,_ZN11StringUtils6CenterERKNSt7__cxx1112basic_stringIcSt11char_traitsIcESaIcEEEic
FNL:3,160,173
FNA:3,7,_ZN11StringUtils5LJustERKNSt7__cxx1112basic_stringIcSt11char_traitsIcESaIcEEEic
FNL:4,175,188
FNA:4,7,_ZN11StringUtils5RJustERKNSt7__cxx1112basic_stringIcSt11char_traitsIcESaIcEEEic
FNL:5,190,214
FNA:5,302,_ZN11StringUtils7ReplaceERKNSt7__cxx1112basic_stringIcSt11char_traitsIcESaIcEEES7_S7_
FNL:6,216,258
FNA:6,16,_ZN11StringUtils5SplitERKNSt7__cxx1112basic_stringIcSt11char_traitsIcESaIcEEES7_
FNL:7,260,275
FNA:7,11,_ZN11StringUtils4JoinERKNSt7__cxx1112basic_stringIcSt11char_traitsIcESaIcEEERKSt6vectorIS5_SaIS5_EE
FNL:8,277,299
FNA:8,16,_ZN11StringUtils10ExpandTabsERKNSt7__cxx1112basic_stringIcSt11char_traitsIcESaIcEEEi
FNL:9,301,328
FNA:9,569622,_ZN11StringUtils12EditDistanceERKNSt7__cxx1112basic_stringIcSt11char_traitsIcESaIcEEES7_b
FNL:10,56,70
FNA:10,10,_ZN11StringUtils10CapitalizeERKNSt7__cxx1112basic_stringIcSt11char_traitsIcESaIcEEE
FNL:11,7,54
FNA:11,952158,_ZN11StringUtils5SliceERKNSt7__cxx1112basic_stringIcSt11char_traitsIcESaIcEEEll
FNL:12,72,81
FNA:12,8,_ZN11StringUtils5UpperERKNSt7__cxx1112basic_stringIcSt11char_traitsIcESaIcEEE
FNL:13,83,92
FNA:13,12,_ZN11StringUtils5LowerERKNSt7__cxx1112basic_stringIcSt11char_traitsIcESaIcEEE
FNL:14,94,106
FNA:14,25,_ZN11StringUtils6LStripERKNSt7__cxx1112basic_stringIcSt11char_traitsIcESaIcEEE
FNF:15
FNH:15
DA:7,952158
DA:8,952158
DA:9,952158
DA:10,5
DA:13,952158
DA:14,952139
DA:15,952139
DA:16,952139
DA:17,952137
DA:20,4
DA:24,19
DA:25,5
DA:26,5
DA:27,3
DA:30,4
DA:34,14
DA:35,11
DA:36,11
DA:37,11
DA:38,10
DA:41,2
DA:46,3
DA:47,3
DA:48,2
DA:51,2
DA:54,952158
DA:56,10
DA:57,10
DA:58,10
DA:59,1
DA:62,9
DA:63,9
DA:64,70
DA:65,62
DA:68,9
DA:72,8
DA:73,8
DA:74,8
DA:75,1
DA:77,50
DA:78,43
DA:80,7
DA:83,12
DA:84,12
DA:85,12
DA:86,1
DA:88,75
DA:89,64
DA:91,11
DA:94,25
DA:95,25
DA:96,25
DA:97,4
DA:99,21
DA:100,21
DA:101,50
DA:102,29
DA:103,29
DA:105,21
DA:106,25
DA:108,25
DA:109,25
DA:110,25
DA:111,2
DA:113,23
DA:114,23
DA:115,47
DA:116,24
DA:117,24
DA:119,23
DA:120,25
DA:122,13
DA:123,13
DA:124,13
DA:125,13
DA:127,12
DA:128,12
DA:129,12
DA:130,3
DA:132,9
DA:133,9
DA:134,15
DA:135,11
DA:136,11
DA:140,5
DA:141,10
DA:142,8
DA:144,8
DA:145,6
DA:149,10
DA:150,7
DA:152,13
DA:153,10
DA:157,9
DA:160,7
DA:161,7
DA:162,7
DA:163,3
DA:166,4
DA:167,20
DA:169,16
DA:172,4
DA:175,7
DA:176,7
DA:177,7
DA:178,2
DA:181,5
DA:182,10
DA:184,5
DA:187,5
DA:190,302
DA:191,302
DA:192,302
DA:193,302
DA:195,19
DA:196,16
DA:198,3
DA:200,344
DA:202,331
DA:203,331
DA:205,45
DA:206,45
DA:210,286
DA:213,13
DA:216,16
DA:217,16
DA:218,16
DA:219,16
DA:221,16
DA:222,93
DA:223,86
DA:224,12
DA:225,33
DA:226,21
DA:228,12
DA:229,10
DA:231,12
DA:234,74
DA:237,7
DA:238,3
DA:240,7
DA:243,23
DA:245,20
DA:246,20
DA:248,14
DA:249,14
DA:253,6
DA:256,9
DA:257,9
DA:260,11
DA:261,11
DA:262,2
DA:264,10
DA:265,10
DA:266,39
DA:267,29
DA:268,29
DA:269,29
DA:270,19
DA:271,19
DA:274,10
DA:275,10
DA:277,16
DA:278,16
DA:279,16
DA:281,170
DA:282,154
DA:283,19
DA:284,16
DA:285,16
DA:286,16
DA:289,135
DA:290,3
DA:291,3
DA:294,132
DA:295,132
DA:298,16
DA:301,569622
DA:302,569622
DA:303,569622
DA:304,34444
DA:306,535178
DA:307,297148
DA:310,238030
DA:311,238030
DA:312,238030
DA:313,2
DA:314,2
DA:317,238030
DA:318,238030
DA:319,238030
DA:320,238030
DA:322,238030
DA:323,72240
DA:326,165790
DA:328,238030
LF:196
LH:196
end_of_record
TN:
SF:/workspace/src/XMLReader.cpp
FNL:0,101,103
FNA:0,20,_ZN10CXMLReaderD2Ev
FNL:1,105,107
FNA:1,2,_ZNK10CXMLReader3EndEv
FNL:2,109,111
FNA:2,542,_ZN10CXMLReader10ReadEntityER10SXMLEntityb
FNL:3,14,23
FNA:3,213,_ZN10CXMLReader15SImplementation19StartElementHandlerEPvPKcPS3_
FNL:4,25,31
FNA:4,211,_ZN10CXMLReader15SImplementation17EndElementHandlerEPvPKc
FNL:5,33,46
FNA:5,264,_ZN10CXMLReader15SImplementation20CharacterDataHandlerEPvPKci
FNL:6,48,56
FNA:6,20,_ZN10CXMLReader15SImplementationC2ESt10shared_ptrI11CDataSourceE
FNL:7,58,62
FNA:7,20,_ZN10CXMLReader15SImplementationD2Ev
FNL:8,64,69
FNA:8,2,_ZNK10CXMLReader15SImplementation3EndEv
FNL:9,71,93
FNA:9,542,_ZN10CXMLReader15SImplementation10ReadEntityER10SXMLEntityb
FNL:10,96,98
FNA:10,20,_ZN10CXMLReaderC2ESt10shared_ptrI11CDataSourceE
FNF:11
FNH:11
DA:14,213
DA:15,213
DA:16,213
DA:17,213
DA:18,213
DA:19,558
DA:20,345
DA:22,213
DA:23,213
DA:25,211
DA:26,211
DA:27,211
DA:28,211
DA:29,211
DA:30,211
DA:31,211
DA:33,264
DA:34,264
DA:35,528
DA:36,264
DA:37,264
DA:38,123
DA:41,141
DA:42,141
DA:43,141
DA:44,141
DA:45,141
DA:46,264
DA:48,20
DA:49,20
DA:50,20
DA:51,20
DA:52,20
DA:53,20
DA:54,20
DA:56,20
DA:58,20
DA:59,20
DA:60,20
DA:62,20
DA:64,2
DA:65,2
DA:66,1
DA:68,1
DA:71,542
DA:72,542
DA:73,25
DA:74,25
DA:75,25
DA:76,25
DA:78,542
DA:79,538
DA:80,538
DA:82,538
DA:83,11
DA:84,4
DA:85,4
DA:86,4
DA:90,538
DA:92,4
DA:96,20
DA:97,20
DA:98,20
DA:101,20
DA:103,20
DA:105,2
DA:106,2
DA:109,542
DA:110,542
LF:69
LH:69
end_of_record
TN:
SF:/workspace/src/XMLWriter.cpp
FNL:0,104,110
FNA:0,56,_ZN10CXMLWriter15SImplementation7ConvertERNSt7__cxx1112basic_stringIcSt11char_traitsIcESaIcEEE
FNL:1,114,116
FNA:1,11,_ZN10CXMLWriterC2ESt10shared_ptrI9CDataSinkE
FNL:2,118,119
FNA:2,11,_ZN10CXMLWriterD2Ev
FNL:3,121,123
FNA:3,2,_ZN10CXMLWriter5FlushEv
FNL:4,125,127
FNA:4,40,_ZN10CXMLWriter11WriteEntityERK10SXMLEntity
FNL:5,15,17
FNA:5,11,_ZN10CXMLWriter15SImplementationC2ESt10shared_ptrI9CDataSinkE
FNL:6,19,31
FNA:6,2,_ZN10CXMLWriter15SImplementation5FlushEv
FNL:7,33,102
FNA:7,40,_ZN10CXMLWriter15SImplementation11WriteEntityERK10SXMLEntity
FNF:8
FNH:8
DA:15,11
DA:16,11
DA:17,11
DA:19,2
DA:20,2
DA:21,8
DA:22,6
DA:23,6
DA:24,12
DA:25,6
DA:26,6
DA:27,6
DA:28,6
DA:29,6
DA:30,2
DA:33,40
DA:34,40
DA:35,40
DA:36,80
DA:38,40
DA:39,16
DA:41,16
DA:42,16
DA:43,16
DA:44,7
DA:46,4
DA:47,4
DA:48,8
DA:49,8
DA:51,4
DA:52,4
DA:53,4
DA:54,4
DA:55,4
DA:56,4
DA:57,4
DA:59,16
DA:60,16
DA:62,24
DA:63,10
DA:65,10
DA:68,10
DA:69,10
DA:70,10
DA:71,10
DA:72,10
DA:74,14
DA:75,9
DA:76,9
DA:78,5
DA:79,4
DA:80,4
DA:81,4
DA:82,6
DA:84,4
DA:85,4
DA:86,8
DA:87,8
DA:89,4
DA:90,4
DA:91,4
DA:92,4
DA:93,4
DA:94,4
DA:95,4
DA:97,4
DA:98,4
DA:99,4
DA:101,1
DA:102,40
DA:104,56
DA:105,224
DA:106,224
DA:107,224
DA:108,224
DA:109,168
DA:110,56
DA:114,11
DA:115,11
DA:116,11
DA:118,11
DA:119,11
DA:121,2
DA:122,2
DA:125,40
DA:126,40
LF:86
LH:86
end_of_record
